target datalayout = "e-m:e-p270:32:32-p271:32:32-p272:64:64-i64:64-i128:128-f80:128-n8:16:32:64-S128"
target triple = "x86_64-pc-linux-gnu"

%struct.encryption_states_handler_s = type { i16, [4096 x i32] }

@enc_h = internal global [2 x %struct.encryption_states_handler_s] zeroinitializer, align 16

; Function Attrs: nounwind null_pointer_is_valid sspstrong uwtable
define internal void @zb_direct_init() #3 {
  %1 = alloca i32, align 4
  %2 = alloca i32, align 4
  %3 = alloca i32, align 4
  call void @llvm.lifetime.start.p0(i64 4, ptr %1) #13
  store i32 0, ptr %1, align 4
  br label %4

4:                                                ; preds = %41, %0
  %5 = load i32, ptr %1, align 4
  %6 = icmp slt i32 %5, 2
  br i1 %6, label %8, label %7

7:                                                ; preds = %4
  store i32 2, ptr %2, align 4
  call void @llvm.lifetime.end.p0(i64 4, ptr %1) #13
  br label %44

8:                                                ; preds = %4
  %9 = load i32, ptr %1, align 4
  %10 = sext i32 %9 to i64
  %11 = getelementptr [2 x %struct.encryption_states_handler_s], ptr @enc_h, i64 0, i64 %10
  %12 = getelementptr inbounds nuw %struct.encryption_states_handler_s, ptr %11, i32 0, i32 0
  store i16 0, ptr %12, align 4
  call void @llvm.lifetime.start.p0(i64 4, ptr %3) #13
  store i32 0, ptr %3, align 4
  br label %13

13:                                               ; preds = %37, %8
  %14 = load i32, ptr %3, align 4
  %15 = icmp slt i32 %14, 4096
  br i1 %15, label %16, label %26

16:                                               ; preds = %13
  %17 = load i32, ptr %1, align 4
  %18 = sext i32 %17 to i64
  %19 = getelementptr [2 x %struct.encryption_states_handler_s], ptr @enc_h, i64 0, i64 %18
  %20 = getelementptr inbounds nuw %struct.encryption_states_handler_s, ptr %19, i32 0, i32 1
  %21 = load i32, ptr %3, align 4
  %22 = sext i32 %21 to i64
  %23 = getelementptr [4096 x i32], ptr %20, i64 0, i64 %22
  %24 = load i32, ptr %23, align 4
  %25 = icmp ne i32 %24, 0
  br label %26

26:                                               ; preds = %16, %13
  %27 = phi i1 [ false, %13 ], [ %25, %16 ]
  br i1 %27, label %29, label %28

28:                                               ; preds = %26
  store i32 5, ptr %2, align 4
  call void @llvm.lifetime.end.p0(i64 4, ptr %3) #13
  br label %40

29:                                               ; preds = %26
  %30 = load i32, ptr %1, align 4
  %31 = sext i32 %30 to i64
  %32 = getelementptr [2 x %struct.encryption_states_handler_s], ptr @enc_h, i64 0, i64 %31
  %33 = getelementptr inbounds nuw %struct.encryption_states_handler_s, ptr %32, i32 0, i32 1
  %34 = load i32, ptr %3, align 4
  %35 = sext i32 %34 to i64
  %36 = getelementptr [4096 x i32], ptr %33, i64 0, i64 %35
  store i32 0, ptr %36, align 4
  br label %37

37:                                               ; preds = %29
  %38 = load i32, ptr %3, align 4
  %39 = add i32 %38, 1
  store i32 %39, ptr %3, align 4
  br label %13, !llvm.loop !6

40:                                               ; preds = %28
  br label %41

41:                                               ; preds = %40
  %42 = load i32, ptr %1, align 4
  %43 = add i32 %42, 1
  store i32 %43, ptr %1, align 4
  br label %4, !llvm.loop !8

44:                                               ; preds = %7
  ret void
}