; Function Attrs: nofree norecurse nosync nounwind null_pointer_is_valid sspstrong memory(readwrite, argmem: none, inaccessiblemem: none) uwtable
define internal void @zb_direct_init() #3 {
  br label %2

1:                                                ; preds = %.critedge
  ret void

2:                                                ; preds = %0, %.critedge
  %3 = phi i1 [ true, %0 ], [ false, %.critedge ]
  %indvars.iv13 = phi i64 [ 0, %0 ], [ 1, %.critedge ]
  %4 = getelementptr [2 x %struct.encryption_states_handler_s], ptr @enc_h, i64 0, i64 %indvars.iv13
  store i16 0, ptr %4, align 4
  %5 = getelementptr inbounds nuw i8, ptr %4, i64 4
  br label %6

6:                                                ; preds = %2, %9
  %indvars.iv = phi i64 [ 0, %2 ], [ %indvars.iv.next, %9 ]
  %7 = getelementptr [4096 x i32], ptr %5, i64 0, i64 %indvars.iv
  %8 = load i32, ptr %7, align 4
  %.not = icmp eq i32 %8, 0
  br i1 %.not, label %.critedge, label %9

.critedge:                                        ; preds = %9, %6
  br i1 %3, label %2, label %1, !llvm.loop !6

9:                                                ; preds = %6
  store i32 0, ptr %7, align 4
  %indvars.iv.next = add nuw nsw i64 %indvars.iv, 1
  %exitcond.not = icmp eq i64 %indvars.iv.next, 4096
  br i1 %exitcond.not, label %.critedge, label %6, !llvm.loop !8
}